target datalayout = "e-m:e-p270:32:32-p271:32:32-p272:64:64-i64:64-i128:128-f80:128-n8:16:32:64-S128"
target triple = "x86_64-pc-linux-gnu"

%struct.Nwk_Obj_t_ = type { ptr, ptr, ptr, %union.anon, i32, i32, i32, i32, float, float, float, i32, i32, i32, ptr }
%union.anon = type { ptr }

; Function Attrs: nounwind uwtable
define i32 @Nwk_ObjFindFanout(ptr noundef %0, ptr noundef %1) #0 {
  %3 = alloca i32, align 4
  %4 = alloca ptr, align 8
  %5 = alloca ptr, align 8
  %6 = alloca ptr, align 8
  %7 = alloca i32, align 4
  store ptr %0, ptr %4, align 8
  store ptr %1, ptr %5, align 8
  store i32 0, ptr %7, align 4
  br label %8

8:                                                ; preds = %36, %2
  %9 = load i32, ptr %7, align 4
  %10 = load ptr, ptr %4, align 8
  %11 = getelementptr inbounds %struct.Nwk_Obj_t_, ptr %10, i32 0, i32 12
  %12 = load i32, ptr %11, align 8
  %13 = icmp slt i32 %9, %12
  br i1 %13, label %14, label %27

14:                                               ; preds = %8
  %15 = load ptr, ptr %4, align 8
  %16 = getelementptr inbounds %struct.Nwk_Obj_t_, ptr %15, i32 0, i32 14
  %17 = load ptr, ptr %16, align 8
  %18 = load ptr, ptr %4, align 8
  %19 = getelementptr inbounds %struct.Nwk_Obj_t_, ptr %18, i32 0, i32 11
  %20 = load i32, ptr %19, align 4
  %21 = load i32, ptr %7, align 4
  %22 = add nsw i32 %20, %21
  %23 = sext i32 %22 to i64
  %24 = getelementptr inbounds ptr, ptr %17, i64 %23
  %25 = load ptr, ptr %24, align 8
  store ptr %25, ptr %6, align 8
  %26 = icmp ne ptr %25, null
  br label %27

27:                                               ; preds = %14, %8
  %28 = phi i1 [ false, %8 ], [ %26, %14 ]
  br i1 %28, label %29, label %39

29:                                               ; preds = %27
  %30 = load ptr, ptr %6, align 8
  %31 = load ptr, ptr %5, align 8
  %32 = icmp eq ptr %30, %31
  br i1 %32, label %33, label %35

33:                                               ; preds = %29
  %34 = load i32, ptr %7, align 4
  store i32 %34, ptr %3, align 4
  br label %40

35:                                               ; preds = %29
  br label %36

36:                                               ; preds = %35
  %37 = load i32, ptr %7, align 4
  %38 = add nsw i32 %37, 1
  store i32 %38, ptr %7, align 4
  br label %8, !llvm.loop !8

39:                                               ; preds = %27
  store i32 -1, ptr %3, align 4
  br label %40

40:                                               ; preds = %39, %33
  %41 = load i32, ptr %3, align 4
  ret i32 %41
}