; Function Attrs: nofree norecurse nosync nounwind memory(read, inaccessiblemem: none) uwtable
define range(i32 -2147483648, 2147483647) i32 @Nwk_ObjFindFanout(ptr noundef readonly captures(none) %0, ptr noundef readnone %1) local_unnamed_addr #1 {
  %3 = getelementptr inbounds nuw i8, ptr %0, i64 64
  %4 = load i32, ptr %3, align 8
  %5 = icmp sgt i32 %4, 0
  br i1 %5, label %.lr.ph, label %.critedge

.lr.ph:                                           ; preds = %2
  %6 = getelementptr inbounds nuw i8, ptr %0, i64 72
  %7 = load ptr, ptr %6, align 8
  %8 = getelementptr inbounds nuw i8, ptr %0, i64 60
  %9 = load i32, ptr %8, align 4
  %10 = sext i32 %9 to i64
  %wide.trip.count = zext nneg i32 %4 to i64
  %invariant.gep = getelementptr ptr, ptr %7, i64 %10
  br label %11

11:                                               ; preds = %.lr.ph, %15
  %indvars.iv = phi i64 [ 0, %.lr.ph ], [ %indvars.iv.next, %15 ]
  %gep = getelementptr ptr, ptr %invariant.gep, i64 %indvars.iv
  %12 = load ptr, ptr %gep, align 8
  %.not = icmp eq ptr %12, null
  br i1 %.not, label %.critedge, label %13

13:                                               ; preds = %11
  %14 = icmp eq ptr %12, %1
  br i1 %14, label %.critedge.loopexit.split.loop.exit19, label %15

15:                                               ; preds = %13
  %indvars.iv.next = add nuw nsw i64 %indvars.iv, 1
  %exitcond.not = icmp eq i64 %indvars.iv.next, %wide.trip.count
  br i1 %exitcond.not, label %.critedge, label %11, !llvm.loop !8

.critedge.loopexit.split.loop.exit19:             ; preds = %13
  %16 = trunc nuw nsw i64 %indvars.iv to i32
  br label %.critedge

.critedge:                                        ; preds = %11, %15, %.critedge.loopexit.split.loop.exit19, %2
  %.09 = phi i32 [ -1, %2 ], [ %16, %.critedge.loopexit.split.loop.exit19 ], [ -1, %15 ], [ -1, %11 ]
  ret i32 %.09
}